
main.elf:     file format elf32-littleriscv


Disassembly of section .text:

00000000 <entry>:
   0:	ff010113          	addi	sp,sp,-16
   4:	00112623          	sw	ra,12(sp)
   8:	00812423          	sw	s0,8(sp)
   c:	01010413          	addi	s0,sp,16
  10:	00120137          	lui	sp,0x120
  14:	ffc10113          	addi	sp,sp,-4 # 11fffc <_end+0x1f7fc>
  18:	018000ef          	jal	ra,30 <main>
  1c:	00000013          	nop
  20:	00c12083          	lw	ra,12(sp)
  24:	00812403          	lw	s0,8(sp)
  28:	01010113          	addi	sp,sp,16
  2c:	00008067          	ret

00000030 <main>:
  30:	ff010113          	addi	sp,sp,-16
  34:	00112623          	sw	ra,12(sp)
  38:	00812423          	sw	s0,8(sp)
  3c:	01010413          	addi	s0,sp,16
  40:	30c000ef          	jal	ra,34c <vga_init>
  44:	00100517          	auipc	a0,0x100
  48:	fbc50513          	addi	a0,a0,-68 # 100000 <hello>
  4c:	438000ef          	jal	ra,484 <putstr>
  50:	0000006f          	j	50 <main+0x20>

00000054 <__mulsi3>:
  54:	fd010113          	addi	sp,sp,-48
  58:	02812623          	sw	s0,44(sp)
  5c:	03010413          	addi	s0,sp,48
  60:	fca42e23          	sw	a0,-36(s0)
  64:	fcb42c23          	sw	a1,-40(s0)
  68:	fe042623          	sw	zero,-20(s0)
  6c:	0380006f          	j	a4 <__mulsi3+0x50>
  70:	fdc42783          	lw	a5,-36(s0)
  74:	0017f793          	andi	a5,a5,1
  78:	00078a63          	beqz	a5,8c <__mulsi3+0x38>
  7c:	fec42703          	lw	a4,-20(s0)
  80:	fd842783          	lw	a5,-40(s0)
  84:	00f707b3          	add	a5,a4,a5
  88:	fef42623          	sw	a5,-20(s0)
  8c:	fdc42783          	lw	a5,-36(s0)
  90:	0017d793          	srli	a5,a5,0x1
  94:	fcf42e23          	sw	a5,-36(s0)
  98:	fd842783          	lw	a5,-40(s0)
  9c:	00179793          	slli	a5,a5,0x1
  a0:	fcf42c23          	sw	a5,-40(s0)
  a4:	fdc42783          	lw	a5,-36(s0)
  a8:	fc0794e3          	bnez	a5,70 <__mulsi3+0x1c>
  ac:	fec42783          	lw	a5,-20(s0)
  b0:	00078513          	mv	a0,a5
  b4:	02c12403          	lw	s0,44(sp)
  b8:	03010113          	addi	sp,sp,48
  bc:	00008067          	ret

000000c0 <__umodsi3>:
  c0:	fd010113          	addi	sp,sp,-48
  c4:	02812623          	sw	s0,44(sp)
  c8:	03010413          	addi	s0,sp,48
  cc:	fca42e23          	sw	a0,-36(s0)
  d0:	fcb42c23          	sw	a1,-40(s0)
  d4:	00100793          	li	a5,1
  d8:	fef42623          	sw	a5,-20(s0)
  dc:	fe042423          	sw	zero,-24(s0)
  e0:	01c0006f          	j	fc <__umodsi3+0x3c>
  e4:	fd842783          	lw	a5,-40(s0)
  e8:	00179793          	slli	a5,a5,0x1
  ec:	fcf42c23          	sw	a5,-40(s0)
  f0:	fec42783          	lw	a5,-20(s0)
  f4:	00179793          	slli	a5,a5,0x1
  f8:	fef42623          	sw	a5,-20(s0)
  fc:	fd842703          	lw	a4,-40(s0)
 100:	fdc42783          	lw	a5,-36(s0)
 104:	04f77e63          	bgeu	a4,a5,160 <__umodsi3+0xa0>
 108:	fec42783          	lw	a5,-20(s0)
 10c:	04078a63          	beqz	a5,160 <__umodsi3+0xa0>
 110:	fd842783          	lw	a5,-40(s0)
 114:	fc07d8e3          	bgez	a5,e4 <__umodsi3+0x24>
 118:	0480006f          	j	160 <__umodsi3+0xa0>
 11c:	fdc42703          	lw	a4,-36(s0)
 120:	fd842783          	lw	a5,-40(s0)
 124:	02f76263          	bltu	a4,a5,148 <__umodsi3+0x88>
 128:	fdc42703          	lw	a4,-36(s0)
 12c:	fd842783          	lw	a5,-40(s0)
 130:	40f707b3          	sub	a5,a4,a5
 134:	fcf42e23          	sw	a5,-36(s0)
 138:	fe842703          	lw	a4,-24(s0)
 13c:	fec42783          	lw	a5,-20(s0)
 140:	00f767b3          	or	a5,a4,a5
 144:	fef42423          	sw	a5,-24(s0)
 148:	fec42783          	lw	a5,-20(s0)
 14c:	0017d793          	srli	a5,a5,0x1
 150:	fef42623          	sw	a5,-20(s0)
 154:	fd842783          	lw	a5,-40(s0)
 158:	0017d793          	srli	a5,a5,0x1
 15c:	fcf42c23          	sw	a5,-40(s0)
 160:	fec42783          	lw	a5,-20(s0)
 164:	fa079ce3          	bnez	a5,11c <__umodsi3+0x5c>
 168:	fdc42783          	lw	a5,-36(s0)
 16c:	00078513          	mv	a0,a5
 170:	02c12403          	lw	s0,44(sp)
 174:	03010113          	addi	sp,sp,48
 178:	00008067          	ret

0000017c <__udivsi3>:
 17c:	fd010113          	addi	sp,sp,-48
 180:	02812623          	sw	s0,44(sp)
 184:	03010413          	addi	s0,sp,48
 188:	fca42e23          	sw	a0,-36(s0)
 18c:	fcb42c23          	sw	a1,-40(s0)
 190:	00100793          	li	a5,1
 194:	fef42623          	sw	a5,-20(s0)
 198:	fe042423          	sw	zero,-24(s0)
 19c:	01c0006f          	j	1b8 <__udivsi3+0x3c>
 1a0:	fd842783          	lw	a5,-40(s0)
 1a4:	00179793          	slli	a5,a5,0x1
 1a8:	fcf42c23          	sw	a5,-40(s0)
 1ac:	fec42783          	lw	a5,-20(s0)
 1b0:	00179793          	slli	a5,a5,0x1
 1b4:	fef42623          	sw	a5,-20(s0)
 1b8:	fd842703          	lw	a4,-40(s0)
 1bc:	fdc42783          	lw	a5,-36(s0)
 1c0:	04f77e63          	bgeu	a4,a5,21c <__udivsi3+0xa0>
 1c4:	fec42783          	lw	a5,-20(s0)
 1c8:	04078a63          	beqz	a5,21c <__udivsi3+0xa0>
 1cc:	fd842783          	lw	a5,-40(s0)
 1d0:	fc07d8e3          	bgez	a5,1a0 <__udivsi3+0x24>
 1d4:	0480006f          	j	21c <__udivsi3+0xa0>
 1d8:	fdc42703          	lw	a4,-36(s0)
 1dc:	fd842783          	lw	a5,-40(s0)
 1e0:	02f76263          	bltu	a4,a5,204 <__udivsi3+0x88>
 1e4:	fdc42703          	lw	a4,-36(s0)
 1e8:	fd842783          	lw	a5,-40(s0)
 1ec:	40f707b3          	sub	a5,a4,a5
 1f0:	fcf42e23          	sw	a5,-36(s0)
 1f4:	fe842703          	lw	a4,-24(s0)
 1f8:	fec42783          	lw	a5,-20(s0)
 1fc:	00f767b3          	or	a5,a4,a5
 200:	fef42423          	sw	a5,-24(s0)
 204:	fec42783          	lw	a5,-20(s0)
 208:	0017d793          	srli	a5,a5,0x1
 20c:	fef42623          	sw	a5,-20(s0)
 210:	fd842783          	lw	a5,-40(s0)
 214:	0017d793          	srli	a5,a5,0x1
 218:	fcf42c23          	sw	a5,-40(s0)
 21c:	fec42783          	lw	a5,-20(s0)
 220:	fa079ce3          	bnez	a5,1d8 <__udivsi3+0x5c>
 224:	fe842783          	lw	a5,-24(s0)
 228:	00078513          	mv	a0,a5
 22c:	02c12403          	lw	s0,44(sp)
 230:	03010113          	addi	sp,sp,48
 234:	00008067          	ret

00000238 <ptrmov>:
 238:	ff010113          	addi	sp,sp,-16
 23c:	00812623          	sw	s0,12(sp)
 240:	01010413          	addi	s0,sp,16
 244:	00100797          	auipc	a5,0x100
 248:	dd078793          	addi	a5,a5,-560 # 100014 <queue_front>
 24c:	0007a703          	lw	a4,0(a5)
 250:	003007b7          	lui	a5,0x300
 254:	10078793          	addi	a5,a5,256 # 300100 <_end+0x1ff900>
 258:	00f70c63          	beq	a4,a5,270 <ptrmov+0x38>
 25c:	00100797          	auipc	a5,0x100
 260:	db878793          	addi	a5,a5,-584 # 100014 <queue_front>
 264:	0007a783          	lw	a5,0(a5)
 268:	00178793          	addi	a5,a5,1
 26c:	0080006f          	j	274 <ptrmov+0x3c>
 270:	003007b7          	lui	a5,0x300
 274:	00100717          	auipc	a4,0x100
 278:	da070713          	addi	a4,a4,-608 # 100014 <queue_front>
 27c:	00f72023          	sw	a5,0(a4)
 280:	00000013          	nop
 284:	00c12403          	lw	s0,12(sp)
 288:	01010113          	addi	sp,sp,16
 28c:	00008067          	ret

00000290 <wait_keyboard>:
 290:	fe010113          	addi	sp,sp,-32
 294:	00112e23          	sw	ra,28(sp)
 298:	00812c23          	sw	s0,24(sp)
 29c:	02010413          	addi	s0,sp,32
 2a0:	0080006f          	j	2a8 <wait_keyboard+0x18>
 2a4:	f95ff0ef          	jal	ra,238 <ptrmov>
 2a8:	00100797          	auipc	a5,0x100
 2ac:	d6c78793          	addi	a5,a5,-660 # 100014 <queue_front>
 2b0:	0007a783          	lw	a5,0(a5)
 2b4:	0007c783          	lbu	a5,0(a5)
 2b8:	fe0786e3          	beqz	a5,2a4 <wait_keyboard+0x14>
 2bc:	00100797          	auipc	a5,0x100
 2c0:	d5878793          	addi	a5,a5,-680 # 100014 <queue_front>
 2c4:	0007a783          	lw	a5,0(a5)
 2c8:	0007c783          	lbu	a5,0(a5)
 2cc:	fef407a3          	sb	a5,-17(s0)
 2d0:	00100797          	auipc	a5,0x100
 2d4:	d4478793          	addi	a5,a5,-700 # 100014 <queue_front>
 2d8:	0007a783          	lw	a5,0(a5)
 2dc:	00078023          	sb	zero,0(a5)
 2e0:	fef44783          	lbu	a5,-17(s0)
 2e4:	00078513          	mv	a0,a5
 2e8:	01c12083          	lw	ra,28(sp)
 2ec:	01812403          	lw	s0,24(sp)
 2f0:	02010113          	addi	sp,sp,32
 2f4:	00008067          	ret

000002f8 <get_keyboard>:
 2f8:	fe010113          	addi	sp,sp,-32
 2fc:	00812e23          	sw	s0,28(sp)
 300:	02010413          	addi	s0,sp,32
 304:	003007b7          	lui	a5,0x300
 308:	fef42623          	sw	a5,-20(s0)
 30c:	01c0006f          	j	328 <get_keyboard+0x30>
 310:	fec42783          	lw	a5,-20(s0)
 314:	0007c783          	lbu	a5,0(a5) # 300000 <_end+0x1ff800>
 318:	00078863          	beqz	a5,328 <get_keyboard+0x30>
 31c:	fec42783          	lw	a5,-20(s0)
 320:	0007c783          	lbu	a5,0(a5)
 324:	0180006f          	j	33c <get_keyboard+0x44>
 328:	fec42703          	lw	a4,-20(s0)
 32c:	003007b7          	lui	a5,0x300
 330:	10078793          	addi	a5,a5,256 # 300100 <_end+0x1ff900>
 334:	fce7fee3          	bgeu	a5,a4,310 <get_keyboard+0x18>
 338:	00000793          	li	a5,0
 33c:	00078513          	mv	a0,a5
 340:	01c12403          	lw	s0,28(sp)
 344:	02010113          	addi	sp,sp,32
 348:	00008067          	ret

0000034c <vga_init>:
 34c:	fe010113          	addi	sp,sp,-32
 350:	00812e23          	sw	s0,28(sp)
 354:	02010413          	addi	s0,sp,32
 358:	00100797          	auipc	a5,0x100
 35c:	cc478793          	addi	a5,a5,-828 # 10001c <vga_line>
 360:	0007a023          	sw	zero,0(a5)
 364:	00100797          	auipc	a5,0x100
 368:	cbc78793          	addi	a5,a5,-836 # 100020 <vga_ch>
 36c:	0007a023          	sw	zero,0(a5)
 370:	fe042623          	sw	zero,-20(s0)
 374:	0540006f          	j	3c8 <vga_init+0x7c>
 378:	fe042423          	sw	zero,-24(s0)
 37c:	0340006f          	j	3b0 <vga_init+0x64>
 380:	00100797          	auipc	a5,0x100
 384:	c9878793          	addi	a5,a5,-872 # 100018 <vga_start>
 388:	0007a783          	lw	a5,0(a5)
 38c:	fec42703          	lw	a4,-20(s0)
 390:	00771693          	slli	a3,a4,0x7
 394:	fe842703          	lw	a4,-24(s0)
 398:	00e68733          	add	a4,a3,a4
 39c:	00e787b3          	add	a5,a5,a4
 3a0:	00078023          	sb	zero,0(a5)
 3a4:	fe842783          	lw	a5,-24(s0)
 3a8:	00178793          	addi	a5,a5,1
 3ac:	fef42423          	sw	a5,-24(s0)
 3b0:	fe842703          	lw	a4,-24(s0)
 3b4:	04500793          	li	a5,69
 3b8:	fce7d4e3          	bge	a5,a4,380 <vga_init+0x34>
 3bc:	fec42783          	lw	a5,-20(s0)
 3c0:	00178793          	addi	a5,a5,1
 3c4:	fef42623          	sw	a5,-20(s0)
 3c8:	fec42703          	lw	a4,-20(s0)
 3cc:	01d00793          	li	a5,29
 3d0:	fae7d4e3          	bge	a5,a4,378 <vga_init+0x2c>
 3d4:	00000013          	nop
 3d8:	00000013          	nop
 3dc:	01c12403          	lw	s0,28(sp)
 3e0:	02010113          	addi	sp,sp,32
 3e4:	00008067          	ret

000003e8 <putch>:
 3e8:	fe010113          	addi	sp,sp,-32
 3ec:	00812e23          	sw	s0,28(sp)
 3f0:	02010413          	addi	s0,sp,32
 3f4:	00050793          	mv	a5,a0
 3f8:	fef407a3          	sb	a5,-17(s0)
 3fc:	fef44703          	lbu	a4,-17(s0)
 400:	00800793          	li	a5,8
 404:	06f70463          	beq	a4,a5,46c <putch+0x84>
 408:	fef44703          	lbu	a4,-17(s0)
 40c:	00a00793          	li	a5,10
 410:	06f70263          	beq	a4,a5,474 <putch+0x8c>
 414:	00100797          	auipc	a5,0x100
 418:	c0478793          	addi	a5,a5,-1020 # 100018 <vga_start>
 41c:	0007a783          	lw	a5,0(a5)
 420:	00100717          	auipc	a4,0x100
 424:	bfc70713          	addi	a4,a4,-1028 # 10001c <vga_line>
 428:	00072703          	lw	a4,0(a4)
 42c:	00771693          	slli	a3,a4,0x7
 430:	00100717          	auipc	a4,0x100
 434:	bf070713          	addi	a4,a4,-1040 # 100020 <vga_ch>
 438:	00072703          	lw	a4,0(a4)
 43c:	00e68733          	add	a4,a3,a4
 440:	00e787b3          	add	a5,a5,a4
 444:	fef44703          	lbu	a4,-17(s0)
 448:	00e78023          	sb	a4,0(a5)
 44c:	00100797          	auipc	a5,0x100
 450:	bd478793          	addi	a5,a5,-1068 # 100020 <vga_ch>
 454:	0007a783          	lw	a5,0(a5)
 458:	00178713          	addi	a4,a5,1
 45c:	00100797          	auipc	a5,0x100
 460:	bc478793          	addi	a5,a5,-1084 # 100020 <vga_ch>
 464:	00e7a023          	sw	a4,0(a5)
 468:	0100006f          	j	478 <putch+0x90>
 46c:	00000013          	nop
 470:	0080006f          	j	478 <putch+0x90>
 474:	00000013          	nop
 478:	01c12403          	lw	s0,28(sp)
 47c:	02010113          	addi	sp,sp,32
 480:	00008067          	ret

00000484 <putstr>:
 484:	fd010113          	addi	sp,sp,-48
 488:	02112623          	sw	ra,44(sp)
 48c:	02812423          	sw	s0,40(sp)
 490:	03010413          	addi	s0,sp,48
 494:	fca42e23          	sw	a0,-36(s0)
 498:	fdc42783          	lw	a5,-36(s0)
 49c:	fef42623          	sw	a5,-20(s0)
 4a0:	0200006f          	j	4c0 <putstr+0x3c>
 4a4:	fec42783          	lw	a5,-20(s0)
 4a8:	0007c783          	lbu	a5,0(a5)
 4ac:	00078513          	mv	a0,a5
 4b0:	f39ff0ef          	jal	ra,3e8 <putch>
 4b4:	fec42783          	lw	a5,-20(s0)
 4b8:	00178793          	addi	a5,a5,1
 4bc:	fef42623          	sw	a5,-20(s0)
 4c0:	fec42783          	lw	a5,-20(s0)
 4c4:	0007c783          	lbu	a5,0(a5)
 4c8:	fc079ee3          	bnez	a5,4a4 <putstr+0x20>
 4cc:	00000013          	nop
 4d0:	00000013          	nop
 4d4:	02c12083          	lw	ra,44(sp)
 4d8:	02812403          	lw	s0,40(sp)
 4dc:	03010113          	addi	sp,sp,48
 4e0:	00008067          	ret
